0000              1   ; Project 1: Reflow oven controller
0000              2   ; ELEC 291 UBC
0000              3   ; Oakley Bach-Raabe, Jashan Brar, Trevor MacKay, Ryan Meshulam, Anusika Nijher
0000              4   ; Includes modified code from Jesus Calvino-Fraga
0000              5   ; GPL v3
                  7   $LIST
0000              9   
0000             10   CLK         EQU 14746000  ; Microcontroller system clock frequency in Hz
0000             11   CCU_RATE    EQU 22050     ; 22050Hz is the sampling rate of the wav file we are playing
0000             12   CCU_RELOAD  EQU ((65536-((CLK/(2*CCU_RATE)))))
0000             13   BAUD        EQU 115200
0000             14   BRVAL       EQU ((CLK/BAUD)-16)
0000             15   XTAL        EQU 7373000
0000             16   
0000             17   ;LCD_RS equ P1.6
0000             18   ;LCD_RW equ P1.4
0000             19   ;LCD_E  equ P1.3
0000             20   ;LCD_D4 equ P0.7
0000             21   ;LCD_D5 equ P0.6
0000             22   ;LCD_D6 equ P0.5
0000             23   ;LCD_D7 equ P0.3
0000             24   
0000             25   PLAY_BUTTON equ P3.0
0000             26   
0000             27   FLASH_CE    EQU P2.4
0000             28   
0030             29   dseg at 30H
0030             30            w:   ds 3 ; 24-bit play counter.  Decremented in CCU ISR.
0033             31     x:   ds 4
0037             32     y:   ds 4
003B             33     bcd: ds 5
0040             34    
0000             35   bseg
0000             36   
0000             37   mf: dbit 1
0001             38   PB0: dbit 1 ; Variable to store the state of pushbutton 0 after calling ADC_to_PB below
0002             39   PB1: dbit 1 ; Variable to store the state of pushbutton 1 after calling ADC_to_PB below
0003             40   PB2: dbit 1 ; Variable to store the state of pushbutton 2 after calling ADC_to_PB below
0004             41   PB3: dbit 1 ; Variable to store the state of pushbutton 3 after calling ADC_to_PB below
0005             42   PB4: dbit 1 ; Variable to store the state of pushbutton 4 after calling ADC_to_PB below
0006             43   PB5: dbit 1 ; Variable to store the state of pushbutton 5 after calling ADC_to_PB below
0007             44   PB6: dbit 1 ; Variable to store the state of pushbutton 6 after calling ADC_to_PB below
0008             45   
0000             46   cseg
0000             47   
0000             48   org 0x0000 ; Reset vector
0000 020799      49       ljmp MainProgram
0003             50   
0003             51   org 0x0003 ; External interrupt 0 vector (not used in this code)
0003 32          52            reti
0004             53   
000B             54   org 0x000B ; Timer/Counter 0 overflow interrupt vector (not used in this code)
000B 32          55            reti
000C             56   
0013             57   org 0x0013 ; External interrupt 1 vector (not used in this code)
0013 32          58            reti
0014             59   
001B             60   org 0x001B ; Timer/Counter 1 overflow interrupt vector (not used in this code
001B 32          61            reti
001C             62   
0023             63   org 0x0023 ; Serial port receive/transmit interrupt vector (not used in this code)
0023 32          64            reti
0024             65   
005B             66   org 0x005b ; CCU interrupt vector.  Used in this code to replay the wave file.
005B 020310      67            ljmp CCU_ISR
005E             68   
005E             69   
005E             70   
                546   $LIST
                 75   $LIST
0780             77   
0780             78   ;---------------------------------;
0780             79   ; Initial configuration of ports. ;
0780             80   ; After reset the default for the ;
0780             81   ; pins is 'Open Drain'.  This     ;
0780             82   ; routine changes them pins to    ;
0780             83   ; Quasi-bidirectional like in the ;
0780             84   ; original 8051.                  ;
0780             85   ; Notice that P1.2 and P1.3 are   ;
0780             86   ; always 'Open Drain'. If those   ;
0780             87   ; pins are to be used as output   ;
0780             88   ; they need a pull-up resistor.   ;
0780             89   ;---------------------------------;
0780             90   Ports_Init:
0780             91       ; Configure all the ports in bidirectional mode:
0780 758400      92       mov P0M1, #00H
0783 758500      93       mov P0M2, #00H
0786 759100      94       mov P1M1, #00H
0789 759200      95       mov P1M2, #00H ; WARNING: P1.2 and P1.3 need 1 kohm pull-up resistors if used as outputs!
078C 75A400      96       mov P2M1, #00H
078F 75A500      97       mov P2M2, #00H
0792 75B100      98       mov P3M1, #00H
0795 75B200      99       mov P3M2, #00H
0798 22         100            ret
0799            101   
0799            102   MainProgram:
0799 75817F     103     mov SP, #0x7F
079C            104     
079C 120780     105     lcall Ports_Init ; Default all pins as bidirectional I/O. See Table 42.
079F 120351     106     lcall Double_Clk
07A2 120341     107     lcall InitDAC ; Call after 'Ports_Init
07A5 1202F9     108            lcall CCU_Init
07A8 120359     109            lcall Init_SPI
07AB            110     
07AB 1205B3     111     lcall InitSerialPort
07AE 1205C9     112            lcall InitADC0
07B1            113     ;lcall LCD_4BIT
07B1            114   
07B1            115     ; Set beginning message on LCD
07B1            116     ;Set_Cursor(1, 1)
07B1            117     ;Send_Constant_String(#Title)
07B1            118   
07B1 1205A6     119     lcall Wait1S ; Wait a bit so PUTTy has a chance to start
07B4            120   
07B4 9006C7     121     mov dptr, #InitialMessage
07B7 120655     122            lcall SendString
07BA            123   
07BA C2C8       124     clr TMOD20 ; Stop CCU timer
07BC D2AF       125            setb EA ; Enable global interrupts.
07BE            126   
07BE            127   forever:
07BE 120715     128     lcall Read_Temperature
07C1 120660     129     lcall ADC_to_PB
07C4            130            ;lcall Display_PushButtons_ADC
07C4 20B0F7     131            jb PLAY_BUTTON, forever
07C7            132     ;Wait_Milli_Seconds(#50)
07C7 20B0F4     133     jb PLAY_BUTTON, forever
07CA 30B0FD     134     jnb PLAY_BUTTON, $
07CD 1202CE     135     lcall Play_Whole_Memory
07D0 0207BE     136     ljmp forever
07D3            137   
07D3            138   en
